; Function Attrs: nounwind uwtable
define range(i32 0, 2) i32 @GC_thread_is_registered() local_unnamed_addr #1 {
  %.b1.i = load i1, ptr @GC_need_to_lock, align 4
  br i1 %.b1.i, label %1, label %GC_lock.exit.i

1:                                                ; preds = %0
  %2 = tail call i32 @pthread_mutex_trylock(ptr noundef nonnull @GC_allocate_ml) #41
  %.not.i = icmp eq i32 %2, 0
  br i1 %.not.i, label %GC_lock.exit.i, label %3

3:                                                ; preds = %1
  %4 = load i32, ptr @GC_nprocs, align 4
  %5 = icmp eq i32 %4, 1
  br i1 %5, label %GC_generic_lock.exit.sink.split.i.i, label %6

6:                                                ; preds = %3
  %7 = load atomic volatile i8, ptr @GC_collecting monotonic, align 1
  %.not.i.i = icmp eq i8 %7, 0
  br i1 %.not.i.i, label %8, label %GC_generic_lock.exit.sink.split.i.i

8:                                                ; preds = %6
  %9 = tail call i32 @pthread_mutex_trylock(ptr noundef nonnull @GC_allocate_ml) #41
  %10 = icmp eq i32 %9, 0
  br i1 %10, label %GC_lock.exit.i, label %.preheader.i.i.i

.preheader.i.i.i:                                 ; preds = %8, %14
  %.079.i.i.i = phi i32 [ %15, %14 ], [ 1, %8 ]
  fence syncscope("singlethread") seq_cst
  %11 = tail call i32 @pthread_mutex_trylock(ptr noundef nonnull @GC_allocate_ml) #41
  switch i32 %11, label %12 [
    i32 0, label %GC_lock.exit.i
    i32 16, label %14
  ]

12:                                               ; preds = %.preheader.i.i.i
  %13 = load ptr, ptr @GC_on_abort, align 8
  tail call void %13(ptr noundef nonnull @.str.340) #41
  tail call void @abort() #47
  unreachable

14:                                               ; preds = %.preheader.i.i.i
  %15 = shl nuw nsw i32 %.079.i.i.i, 1
  %16 = icmp samesign ult i32 %.079.i.i.i, 65
  br i1 %16, label %.preheader.i.i.i, label %GC_generic_lock.exit.sink.split.i.i, !llvm.loop !4

GC_generic_lock.exit.sink.split.i.i:              ; preds = %14, %6, %3
  %17 = tail call i32 @pthread_mutex_lock(ptr noundef nonnull @GC_allocate_ml) #41
  br label %GC_lock.exit.i

GC_lock.exit.i:                                   ; preds = %.preheader.i.i.i, %GC_generic_lock.exit.sink.split.i.i, %8, %1, %0
  %18 = tail call i64 @pthread_self() #48
  %19 = lshr i64 %18, 8
  %20 = xor i64 %19, %18
  %21 = lshr i64 %20, 16
  %22 = xor i64 %21, %20
  %23 = and i64 %22, 255
  %24 = getelementptr inbounds nuw [256 x ptr], ptr @GC_threads, i64 0, i64 %23
  br label %25

25:                                               ; preds = %26, %GC_lock.exit.i
  %.0.in.i.i = phi ptr [ %24, %GC_lock.exit.i ], [ %.0.i.i, %26 ]
  %.0.i.i = load ptr, ptr %.0.in.i.i, align 8
  %.not.i2.i = icmp eq ptr %.0.i.i, null
  br i1 %.not.i2.i, label %GC_lookup_thread.exit.i, label %26

26:                                               ; preds = %25
  %27 = getelementptr inbounds nuw i8, ptr %.0.i.i, i64 16
  %28 = load i64, ptr %27, align 8
  %29 = icmp eq i64 %28, %18
  br i1 %29, label %GC_lookup_thread.exit.i, label %25, !llvm.loop !10

GC_lookup_thread.exit.i:                          ; preds = %26, %25
  %.b.i = load i1, ptr @GC_need_to_lock, align 4
  br i1 %.b.i, label %30, label %GC_self_thread.exit

30:                                               ; preds = %GC_lookup_thread.exit.i
  %31 = tail call i32 @pthread_mutex_unlock(ptr noundef nonnull @GC_allocate_ml) #41
  br label %GC_self_thread.exit

GC_self_thread.exit:                              ; preds = %GC_lookup_thread.exit.i, %30
  br i1 %.not.i2.i, label %38, label %32

32:                                               ; preds = %GC_self_thread.exit
  %33 = getelementptr inbounds nuw i8, ptr %.0.i.i, i64 24
  %34 = load i8, ptr %33, align 8
  %35 = and i8 %34, 1
  %36 = xor i8 %35, 1
  %37 = zext nneg i8 %36 to i32
  br label %38

38:                                               ; preds = %32, %GC_self_thread.exit
  %39 = phi i32 [ 0, %GC_self_thread.exit ], [ %37, %32 ]
  ret i32 %39
}